target datalayout = "e-m:e-p270:32:32-p271:32:32-p272:64:64-i64:64-i128:128-f80:128-n8:16:32:64-S128"
target triple = "x86_64-pc-linux-gnu"

%"class.LIEF::PE::RichEntry" = type { %"class.LIEF::Object", i16, i16, i32 }
%"class.LIEF::Object" = type { ptr }

; Function Attrs: mustprogress uwtable
define void @_ZN4LIEF2PE9RichEntryC2Ettj(ptr noundef nonnull align 8 dereferenceable(16) %0, i16 noundef zeroext %1, i16 noundef zeroext %2, i32 noundef %3) unnamed_addr #3 align 2 {
  %5 = alloca ptr, align 8
  %6 = alloca i16, align 2
  %7 = alloca i16, align 2
  %8 = alloca i32, align 4
  store ptr %0, ptr %5, align 8
  store i16 %1, ptr %6, align 2
  store i16 %2, ptr %7, align 2
  store i32 %3, ptr %8, align 4
  %9 = load ptr, ptr %5, align 8
  call void @_ZN4LIEF6ObjectC2Ev(ptr noundef nonnull align 8 dereferenceable(8) %9)
  store ptr getelementptr inbounds ({ [7 x ptr] }, ptr @_ZTVN4LIEF2PE9RichEntryE, i32 0, i32 0, i32 2), ptr %9, align 8
  %10 = getelementptr inbounds %"class.LIEF::PE::RichEntry", ptr %9, i32 0, i32 1
  %11 = load i16, ptr %6, align 2
  store i16 %11, ptr %10, align 8
  %12 = getelementptr inbounds %"class.LIEF::PE::RichEntry", ptr %9, i32 0, i32 2
  %13 = load i16, ptr %7, align 2
  store i16 %13, ptr %12, align 2
  %14 = getelementptr inbounds %"class.LIEF::PE::RichEntry", ptr %9, i32 0, i32 3
  %15 = load i32, ptr %8, align 4
  store i32 %15, ptr %14, align 4
  ret void
}