; Function Attrs: mustprogress uwtable
define void @_ZN4LIEF2PE9RichEntryC2Ettj(ptr noundef nonnull align 8 dereferenceable(16) %0, i16 noundef zeroext %1, i16 noundef zeroext %2, i32 noundef %3) unnamed_addr #3 align 2 {
  tail call void @_ZN4LIEF6ObjectC2Ev(ptr noundef nonnull align 8 dereferenceable(8) %0)
  store ptr getelementptr inbounds ({ [7 x ptr] }, ptr @_ZTVN4LIEF2PE9RichEntryE, i64 0, i32 0, i64 2), ptr %0, align 8
  %5 = getelementptr inbounds i8, ptr %0, i64 8
  store i16 %1, ptr %5, align 8
  %6 = getelementptr inbounds i8, ptr %0, i64 10
  store i16 %2, ptr %6, align 2
  %7 = getelementptr inbounds i8, ptr %0, i64 12
  store i32 %3, ptr %7, align 4
  ret void
}